; Function Attrs: mustprogress nounwind uwtable
define dso_local void @_ZN4llvm4yaml6Output14beginDocumentsEv(ptr noundef nonnull align 8 dereferenceable(128) %0) local_unnamed_addr #6 align 2 {
  %2 = getelementptr inbounds nuw i8, ptr %0, i64 80
  %3 = load i32, ptr %2, align 8
  %4 = add i32 %3, 3
  store i32 %4, ptr %2, align 8
  %5 = getelementptr inbounds nuw i8, ptr %0, i64 16
  %6 = load ptr, ptr %5, align 8
  %7 = getelementptr inbounds nuw i8, ptr %6, i64 24
  %8 = load ptr, ptr %7, align 8
  %9 = getelementptr inbounds nuw i8, ptr %6, i64 32
  %10 = load ptr, ptr %9, align 8
  %11 = ptrtoint ptr %8 to i64
  %12 = ptrtoint ptr %10 to i64
  %13 = sub i64 %11, %12
  %14 = icmp ult i64 %13, 3
  br i1 %14, label %15, label %17

15:                                               ; preds = %1
  %16 = tail call noundef nonnull align 8 dereferenceable(48) ptr @_ZN4llvm11raw_ostream5writeEPKcm(ptr noundef nonnull align 8 dereferenceable(48) %6, ptr noundef nonnull @.str.20, i64 noundef 3) #32
  br label %_ZN4llvm4yaml6Output6outputENS_9StringRefE.exit.i

17:                                               ; preds = %1
  tail call void @llvm.memcpy.p0.p0.i64(ptr noundef nonnull align 1 dereferenceable(3) %10, ptr noundef nonnull align 1 dereferenceable(3) @.str.20, i64 3, i1 false)
  %18 = load ptr, ptr %9, align 8
  %19 = getelementptr inbounds nuw i8, ptr %18, i64 3
  store ptr %19, ptr %9, align 8
  br label %_ZN4llvm4yaml6Output6outputENS_9StringRefE.exit.i

_ZN4llvm4yaml6Output6outputENS_9StringRefE.exit.i: ; preds = %17, %15
  %20 = getelementptr inbounds nuw i8, ptr %0, i64 32
  %21 = tail call noundef zeroext i1 @_ZNK4llvm15SmallVectorBaseIjE5emptyEv(ptr noundef nonnull align 8 dereferenceable(16) %20) #32
  br i1 %21, label %38, label %22

22:                                               ; preds = %_ZN4llvm4yaml6Output6outputENS_9StringRefE.exit.i
  %23 = load ptr, ptr %20, align 8
  %24 = tail call noundef i64 @_ZNK4llvm15SmallVectorBaseIjE4sizeEv(ptr noundef nonnull align 8 dereferenceable(16) %20) #32
  %25 = getelementptr inbounds i32, ptr %23, i64 %24
  %26 = getelementptr inbounds i8, ptr %25, i64 -4
  %27 = load i32, ptr %26, align 4
  %28 = and i32 %27, -2
  %29 = icmp eq i32 %28, 2
  br i1 %29, label %_ZN4llvm4yaml6Output19outputUpToEndOfLineENS_9StringRefE.exit, label %30

30:                                               ; preds = %22
  %31 = load ptr, ptr %20, align 8
  %32 = tail call noundef i64 @_ZNK4llvm15SmallVectorBaseIjE4sizeEv(ptr noundef nonnull align 8 dereferenceable(16) %20) #32
  %33 = getelementptr inbounds i32, ptr %31, i64 %32
  %34 = getelementptr inbounds i8, ptr %33, i64 -4
  %35 = load i32, ptr %34, align 4
  %36 = and i32 %35, -2
  %37 = icmp eq i32 %36, 6
  br i1 %37, label %_ZN4llvm4yaml6Output19outputUpToEndOfLineENS_9StringRefE.exit, label %38

38:                                               ; preds = %30, %_ZN4llvm4yaml6Output6outputENS_9StringRefE.exit.i
  %39 = getelementptr inbounds nuw i8, ptr %0, i64 96
  store ptr @.str.14, ptr %39, align 8
  %.sroa.2.0..sroa_idx.i = getelementptr inbounds nuw i8, ptr %0, i64 104
  store i64 1, ptr %.sroa.2.0..sroa_idx.i, align 8
  br label %_ZN4llvm4yaml6Output19outputUpToEndOfLineENS_9StringRefE.exit

_ZN4llvm4yaml6Output19outputUpToEndOfLineENS_9StringRefE.exit: ; preds = %22, %30, %38
  ret void
}